Certificate:
    Data:
        Version: 3 (0x2)
        Serial Number: 1 (0x1)
    Signature Algorithm: sha1WithRSAEncryption
        Issuer: C=SE, ST=DALARNA, L=FALUN, O=EPRIME, OU=RCS, CN=ca.eprime.com/emailAddress=admin@eprime.com
        Validity
            Not Before: Oct  4 12:57:17 2018 GMT
            Not After : Oct  4 12:57:17 2019 GMT
        Subject: C=SE, ST=DALARNA, O=EPRIME, OU=RCS, CN=tsmuser/emailAddress=admin@eprime.com
        Subject Public Key Info:
            Public Key Algorithm: rsaEncryption
                Public-Key: (2048 bit)
                Modulus:
                    00:ae:84:3e:e4:2f:15:2b:10:a1:21:7b:55:2e:a6:
                    04:0d:61:b6:46:38:5c:35:d0:3b:10:b5:4a:0e:d6:
                    0c:d1:f6:95:78:9b:56:01:71:1b:d3:8b:a2:c3:e4:
                    b5:cc:fc:d3:bb:91:bf:df:7c:28:97:ff:fc:18:dd:
                    c5:7f:9f:21:16:db:31:de:d3:98:20:88:ff:7f:e8:
                    37:a9:f8:9b:2b:e6:f4:94:64:18:e5:71:be:cb:7f:
                    04:1d:66:13:cb:3b:12:26:1c:69:50:f1:59:a6:bd:
                    74:72:28:0b:fc:94:09:ba:89:e1:c6:bd:fc:79:46:
                    a8:f1:33:f8:af:4a:1d:f3:66:4c:a4:fc:47:3d:29:
                    ec:ea:3e:62:9c:dc:f6:6c:39:e9:75:c7:c8:0e:83:
                    76:93:93:ee:ec:8b:d6:cf:7a:a1:eb:2a:36:4b:e5:
                    a5:0c:de:36:8c:a7:13:46:5d:2f:00:e4:21:fc:a5:
                    e1:c9:35:8a:59:3a:4a:29:32:17:7f:87:3e:f6:dd:
                    a6:19:fb:36:60:8f:6b:44:70:06:6c:06:41:dd:6d:
                    7d:dd:26:93:10:2c:78:1d:e9:7f:5e:7b:33:58:61:
                    56:a5:95:83:09:a5:04:b3:c8:58:04:85:ba:4c:83:
                    27:87:f7:c9:ce:c5:d2:a2:54:39:21:b9:8a:ab:11:
                    3e:53
                Exponent: 65537 (0x10001)
        X509v3 extensions:
            X509v3 Basic Constraints: 
                CA:FALSE
            Netscape Comment: 
                OpenSSL Generated Certificate (net-snmp)
            X509v3 Key Usage: 
                Digital Signature, Non Repudiation, Key Encipherment
            X509v3 Subject Key Identifier: 
                88:93:8A:EF:28:A9:1A:DD:4D:5C:17:EE:5A:11:A5:C7:33:ED:07:75
            X509v3 Authority Key Identifier: 
                keyid:01:0D:22:81:D2:FE:16:B0:B8:19:66:B9:23:BF:AE:5E:1B:18:2C:69
                DirName:/C=SE/ST=DALARNA/L=FALUN/O=EPRIME/OU=RCS/CN=ca.eprime.com/emailAddress=admin@eprime.com
                serial:E8:E5:FD:8A:3F:74:AF:A4

            X509v3 Subject Alternative Name: 
                DNS:snmp_0_AW_master.eprime.com
    Signature Algorithm: sha1WithRSAEncryption
         6b:31:84:24:4e:15:51:b6:bc:2b:d3:c2:31:3d:95:0e:d5:30:
         2a:48:21:a3:05:04:28:94:a6:21:a4:57:5b:ea:2d:cb:f9:1f:
         55:84:a4:8f:e9:c9:ee:c4:e8:12:b2:0e:ec:10:76:36:a6:22:
         d1:9e:0b:1f:ad:2f:fd:9c:33:fe:c0:a0:e4:8e:30:57:13:72:
         61:4f:44:29:98:d5:86:87:00:6b:4f:e1:22:6a:81:5b:85:d8:
         fb:8b:d9:4d:c7:2f:74:ad:25:c3:5a:c3:dd:5e:ca:bb:20:65:
         0d:6e:e2:bd:27:e4:ba:d4:5a:40:fd:e3:db:77:2c:82:42:ce:
         e6:22:33:34:97:12:e1:c3:c6:68:1a:73:63:0c:0a:0a:cb:29:
         fc:61:25:fe:dd:42:8f:d2:6e:eb:88:0f:64:5e:21:fa:07:0f:
         55:ae:68:21:d0:55:6b:2b:7a:aa:cb:19:4a:42:41:e5:67:0f:
         90:c8:2e:94:4f:d5:ff:c1:96:89:c6:48:b9:37:85:31:fe:b2:
         fe:c4:c8:67:2f:6d:b7:6c:f0:78:7d:a1:72:89:23:62:1c:9d:
         54:96:e1:58:70:21:c2:19:98:d7:c6:57:30:db:71:ba:9d:6f:
         77:89:06:70:90:8e:9b:58:31:76:92:c3:a6:33:d8:3a:d3:33:
         36:6b:d7:4b
-----BEGIN CERTIFICATE-----
MIIE0TCCA7mgAwIBAgIBATANBgkqhkiG9w0BAQUFADCBhzELMAkGA1UEBhMCU0Ux
EDAOBgNVBAgTB0RBTEFSTkExDjAMBgNVBAcTBUZBTFVOMQ8wDQYDVQQKEwZFUFJJ
TUUxDDAKBgNVBAsTA1JDUzEWMBQGA1UEAxMNY2EuZXByaW1lLmNvbTEfMB0GCSqG
SIb3DQEJARYQYWRtaW5AZXByaW1lLmNvbTAeFw0xODEwMDQxMjU3MTdaFw0xOTEw
MDQxMjU3MTdaMHExCzAJBgNVBAYTAlNFMRAwDgYDVQQIEwdEQUxBUk5BMQ8wDQYD
VQQKEwZFUFJJTUUxDDAKBgNVBAsTA1JDUzEQMA4GA1UEAxMHdHNtdXNlcjEfMB0G
CSqGSIb3DQEJARYQYWRtaW5AZXByaW1lLmNvbTCCASIwDQYJKoZIhvcNAQEBBQAD
ggEPADCCAQoCggEBAK6EPuQvFSsQoSF7VS6mBA1htkY4XDXQOxC1Sg7WDNH2lXib
VgFxG9OLosPktcz807uRv998KJf//BjdxX+fIRbbMd7TmCCI/3/oN6n4myvm9JRk
GOVxvst/BB1mE8s7EiYcaVDxWaa9dHIoC/yUCbqJ4ca9/HlGqPEz+K9KHfNmTKT8
Rz0p7Oo+Ypzc9mw56XXHyA6DdpOT7uyL1s96oesqNkvlpQzeNoynE0ZdLwDkIfyl
4ck1ilk6SikyF3+HPvbdphn7NmCPa0RwBmwGQd1tfd0mkxAseB3pf157M1hhVqWV
gwmlBLPIWASFukyDJ4f3yc7F0qJUOSG5iqsRPlMCAwEAAaOCAVswggFXMAkGA1Ud
EwQCMAAwNwYJYIZIAYb4QgENBCoWKE9wZW5TU0wgR2VuZXJhdGVkIENlcnRpZmlj
YXRlIChuZXQtc25tcCkwCwYDVR0PBAQDAgXgMB0GA1UdDgQWBBSIk4rvKKka3U1c
F+5aEaXHM+0HdTCBvAYDVR0jBIG0MIGxgBQBDSKB0v4WsLgZZrkjv65eGxgsaaGB
jaSBijCBhzELMAkGA1UEBhMCU0UxEDAOBgNVBAgTB0RBTEFSTkExDjAMBgNVBAcT
BUZBTFVOMQ8wDQYDVQQKEwZFUFJJTUUxDDAKBgNVBAsTA1JDUzEWMBQGA1UEAxMN
Y2EuZXByaW1lLmNvbTEfMB0GCSqGSIb3DQEJARYQYWRtaW5AZXByaW1lLmNvbYIJ
AOjl/Yo/dK+kMCYGA1UdEQQfMB2CG3NubXBfMF9BV19tYXN0ZXIuZXByaW1lLmNv
bTANBgkqhkiG9w0BAQUFAAOCAQEAazGEJE4VUba8K9PCMT2VDtUwKkghowUEKJSm
IaRXW+oty/kfVYSkj+nJ7sToErIO7BB2NqYi0Z4LH60v/Zwz/sCg5I4wVxNyYU9E
KZjVhocAa0/hImqBW4XY+4vZTccvdK0lw1rD3V7KuyBlDW7ivSfkutRaQP3j23cs
gkLO5iIzNJcS4cPGaBpzYwwKCssp/GEl/t1Cj9Ju64gPZF4h+gcPVa5oIdBVayt6
qssZSkJB5WcPkMgulE/V/8GWicZIuTeFMf6y/sTIZy9tt2zweH2hcokjYhydVJbh
WHAhwhmY18ZXMNtxup1vd4kGcJCOm1gxdpLDpjPYOtMzNmvXSw==
-----END CERTIFICATE-----
