Certificate:
    Data:
        Version: 3 (0x2)
        Serial Number: 2 (0x2)
    Signature Algorithm: sha1WithRSAEncryption
        Issuer: C=SE, ST=DALARNA, L=FALUN, O=EPRIME, OU=RCS, CN=ca.eprime.com/emailAddress=admin@eprime.com
        Validity
            Not Before: Oct  4 12:57:17 2018 GMT
            Not After : Oct  4 12:57:17 2019 GMT
        Subject: C=SE, ST=DALARNA, O=EPRIME, OU=RCS, CN=trapuser/emailAddress=admin@eprime.com
        Subject Public Key Info:
            Public Key Algorithm: rsaEncryption
                Public-Key: (2048 bit)
                Modulus:
                    00:e1:df:de:61:3b:3a:0c:53:d6:f2:b8:dd:84:bf:
                    aa:f4:4e:c1:9a:60:cc:76:23:2a:ab:7e:80:e2:ab:
                    c3:4d:34:fb:12:67:93:30:e7:03:28:c5:3b:25:16:
                    66:82:64:16:fc:a8:64:ea:d8:23:e9:c9:20:75:16:
                    c2:1a:9f:c8:69:c9:38:16:41:2a:3d:6f:f4:4c:ea:
                    9f:0b:ab:c1:18:84:a0:1a:37:f1:47:3d:b2:90:cf:
                    c0:a9:e7:cf:20:b1:48:e3:0d:40:35:8f:f3:58:cc:
                    24:93:ea:6d:1e:67:46:53:c1:7d:85:f9:8f:1a:74:
                    7f:dc:f6:b4:20:63:d0:bb:ec:b2:71:fb:e9:ed:42:
                    35:4a:f9:63:20:72:b3:79:a1:7a:d6:39:a5:47:4d:
                    fc:f2:e2:58:30:82:3c:1b:9b:5b:1b:5d:ca:af:28:
                    a6:73:de:56:d9:a1:78:65:f7:44:6b:d0:d2:74:9d:
                    47:05:02:bb:39:95:32:84:65:f7:e7:5f:89:ad:c5:
                    4c:e4:cd:b9:ed:a8:22:d5:d8:71:e6:e1:e4:64:0d:
                    27:15:33:23:c3:11:56:20:ae:cc:20:4e:f6:c0:80:
                    3e:d7:ff:cc:8a:a7:ff:78:05:66:97:30:54:c4:ca:
                    e7:e0:52:8a:c5:3c:58:2d:6e:9b:96:a6:1b:c8:03:
                    ed:31
                Exponent: 65537 (0x10001)
        X509v3 extensions:
            X509v3 Basic Constraints: 
                CA:FALSE
            Netscape Comment: 
                OpenSSL Generated Certificate (net-snmp)
            X509v3 Key Usage: 
                Digital Signature, Non Repudiation, Key Encipherment
            X509v3 Subject Key Identifier: 
                E3:AA:0A:D4:D5:3B:2B:F1:25:8B:B5:73:C0:5E:A2:9E:F1:DC:D5:62
            X509v3 Authority Key Identifier: 
                keyid:01:0D:22:81:D2:FE:16:B0:B8:19:66:B9:23:BF:AE:5E:1B:18:2C:69
                DirName:/C=SE/ST=DALARNA/L=FALUN/O=EPRIME/OU=RCS/CN=ca.eprime.com/emailAddress=admin@eprime.com
                serial:E8:E5:FD:8A:3F:74:AF:A4

            X509v3 Subject Alternative Name: 
                DNS:snmp_0_AW_master.eprime.com
    Signature Algorithm: sha1WithRSAEncryption
         40:34:bc:98:60:23:2a:bd:b0:6b:01:ad:96:3f:68:db:e5:da:
         49:bf:73:70:c8:5f:f6:c1:cc:6e:20:c8:3d:68:b2:fc:42:ed:
         5b:d9:af:db:f3:46:63:72:46:10:cd:a7:c6:10:b6:98:06:a5:
         00:32:6e:a2:65:c8:f2:6a:f1:2f:06:3c:d9:3f:0b:57:09:94:
         08:5f:c5:77:d9:f4:29:b3:b3:ee:1e:7f:60:b4:06:43:b7:5e:
         ab:f5:76:0d:93:c3:d2:99:9d:71:f9:e6:a3:8f:23:eb:96:3b:
         8a:70:b6:6b:15:d1:3d:f2:6f:24:3c:41:a5:c9:09:68:55:a3:
         d6:84:1d:07:3b:8c:1d:26:ab:93:cf:3d:ce:fd:c2:55:a6:fa:
         ce:e0:cc:0b:8f:01:25:ec:2b:4d:d0:27:7e:98:be:b6:70:64:
         8e:e4:5f:78:74:06:0a:7c:7d:6d:bd:31:10:22:41:4b:40:26:
         63:3c:a0:1f:05:8c:ec:17:99:7e:d6:56:3b:22:f2:e6:58:c7:
         46:50:2d:66:b3:d1:a0:c1:09:70:35:91:53:62:6c:0f:6a:77:
         6c:e7:fa:92:b0:50:05:c3:a5:8e:4c:5e:e9:0f:34:9b:d1:f9:
         6b:8d:29:a8:77:38:23:35:e2:0e:9e:b6:90:52:51:fc:9b:de:
         47:f5:bd:a8
-----BEGIN CERTIFICATE-----
MIIE0jCCA7qgAwIBAgIBAjANBgkqhkiG9w0BAQUFADCBhzELMAkGA1UEBhMCU0Ux
EDAOBgNVBAgTB0RBTEFSTkExDjAMBgNVBAcTBUZBTFVOMQ8wDQYDVQQKEwZFUFJJ
TUUxDDAKBgNVBAsTA1JDUzEWMBQGA1UEAxMNY2EuZXByaW1lLmNvbTEfMB0GCSqG
SIb3DQEJARYQYWRtaW5AZXByaW1lLmNvbTAeFw0xODEwMDQxMjU3MTdaFw0xOTEw
MDQxMjU3MTdaMHIxCzAJBgNVBAYTAlNFMRAwDgYDVQQIEwdEQUxBUk5BMQ8wDQYD
VQQKEwZFUFJJTUUxDDAKBgNVBAsTA1JDUzERMA8GA1UEAxMIdHJhcHVzZXIxHzAd
BgkqhkiG9w0BCQEWEGFkbWluQGVwcmltZS5jb20wggEiMA0GCSqGSIb3DQEBAQUA
A4IBDwAwggEKAoIBAQDh395hOzoMU9byuN2Ev6r0TsGaYMx2IyqrfoDiq8NNNPsS
Z5Mw5wMoxTslFmaCZBb8qGTq2CPpySB1FsIan8hpyTgWQSo9b/RM6p8Lq8EYhKAa
N/FHPbKQz8Cp588gsUjjDUA1j/NYzCST6m0eZ0ZTwX2F+Y8adH/c9rQgY9C77LJx
++ntQjVK+WMgcrN5oXrWOaVHTfzy4lgwgjwbm1sbXcqvKKZz3lbZoXhl90Rr0NJ0
nUcFArs5lTKEZffnX4mtxUzkzbntqCLV2HHm4eRkDScVMyPDEVYgrswgTvbAgD7X
/8yKp/94BWaXMFTEyufgUorFPFgtbpuWphvIA+0xAgMBAAGjggFbMIIBVzAJBgNV
HRMEAjAAMDcGCWCGSAGG+EIBDQQqFihPcGVuU1NMIEdlbmVyYXRlZCBDZXJ0aWZp
Y2F0ZSAobmV0LXNubXApMAsGA1UdDwQEAwIF4DAdBgNVHQ4EFgQU46oK1NU7K/El
i7VzwF6invHc1WIwgbwGA1UdIwSBtDCBsYAUAQ0igdL+FrC4GWa5I7+uXhsYLGmh
gY2kgYowgYcxCzAJBgNVBAYTAlNFMRAwDgYDVQQIEwdEQUxBUk5BMQ4wDAYDVQQH
EwVGQUxVTjEPMA0GA1UEChMGRVBSSU1FMQwwCgYDVQQLEwNSQ1MxFjAUBgNVBAMT
DWNhLmVwcmltZS5jb20xHzAdBgkqhkiG9w0BCQEWEGFkbWluQGVwcmltZS5jb22C
CQDo5f2KP3SvpDAmBgNVHREEHzAdghtzbm1wXzBfQVdfbWFzdGVyLmVwcmltZS5j
b20wDQYJKoZIhvcNAQEFBQADggEBAEA0vJhgIyq9sGsBrZY/aNvl2km/c3DIX/bB
zG4gyD1osvxC7VvZr9vzRmNyRhDNp8YQtpgGpQAybqJlyPJq8S8GPNk/C1cJlAhf
xXfZ9Cmzs+4ef2C0BkO3Xqv1dg2Tw9KZnXH55qOPI+uWO4pwtmsV0T3ybyQ8QaXJ
CWhVo9aEHQc7jB0mq5PPPc79wlWm+s7gzAuPASXsK03QJ36YvrZwZI7kX3h0Bgp8
fW29MRAiQUtAJmM8oB8FjOwXmX7WVjsi8uZYx0ZQLWaz0aDBCXA1kVNibA9qd2zn
+pKwUAXDpY5MXukPNJvR+WuNKah3OCM14g6etpBSUfyb3kf1vag=
-----END CERTIFICATE-----
